target datalayout = "e-m:e-p270:32:32-p271:32:32-p272:64:64-i64:64-i128:128-f80:128-n8:16:32:64-S128"
target triple = "x86_64-pc-linux-gnu"

; Function Attrs: mustprogress nounwind uwtable
define internal noundef i32 @_ZN6icu_775unitsL13bsearchRangesEPdid(ptr noundef %0, i32 noundef %1, double noundef %2) #0 {
  %4 = alloca i32, align 4
  %5 = alloca ptr, align 8
  %6 = alloca i32, align 4
  %7 = alloca double, align 8
  %8 = alloca i32, align 4
  %9 = alloca i32, align 4
  %10 = alloca i32, align 4
  store ptr %0, ptr %5, align 8, !tbaa !34
  store i32 %1, ptr %6, align 4, !tbaa !14
  store double %2, ptr %7, align 8, !tbaa !32
  %11 = load double, ptr %7, align 8, !tbaa !32
  %12 = load ptr, ptr %5, align 8, !tbaa !34
  %13 = load i32, ptr %6, align 4, !tbaa !14
  %14 = sext i32 %13 to i64
  %15 = getelementptr inbounds double, ptr %12, i64 %14
  %16 = load double, ptr %15, align 8, !tbaa !32
  %17 = fcmp oge double %11, %16
  br i1 %17, label %18, label %20

18:                                               ; preds = %3
  %19 = load i32, ptr %6, align 4, !tbaa !14
  store i32 %19, ptr %4, align 4
  br label %58

20:                                               ; preds = %3
  call void @llvm.lifetime.start.p0(i64 4, ptr %8) #12
  store i32 0, ptr %8, align 4, !tbaa !14
  call void @llvm.lifetime.start.p0(i64 4, ptr %9) #12
  store i32 0, ptr %9, align 4, !tbaa !14
  call void @llvm.lifetime.start.p0(i64 4, ptr %10) #12
  %21 = load i32, ptr %6, align 4, !tbaa !14
  %22 = add nsw i32 %21, 1
  store i32 %22, ptr %10, align 4, !tbaa !14
  br label %23

23:                                               ; preds = %55, %20
  %24 = load i32, ptr %8, align 4, !tbaa !14
  %25 = load i32, ptr %10, align 4, !tbaa !14
  %26 = icmp slt i32 %24, %25
  br i1 %26, label %27, label %56

27:                                               ; preds = %23
  %28 = load i32, ptr %8, align 4, !tbaa !14
  %29 = load i32, ptr %10, align 4, !tbaa !14
  %30 = add nsw i32 %28, %29
  %31 = sdiv i32 %30, 2
  store i32 %31, ptr %9, align 4, !tbaa !14
  %32 = load double, ptr %7, align 8, !tbaa !32
  %33 = load ptr, ptr %5, align 8, !tbaa !34
  %34 = load i32, ptr %9, align 4, !tbaa !14
  %35 = sext i32 %34 to i64
  %36 = getelementptr inbounds double, ptr %33, i64 %35
  %37 = load double, ptr %36, align 8, !tbaa !32
  %38 = fcmp olt double %32, %37
  br i1 %38, label %39, label %41

39:                                               ; preds = %27
  %40 = load i32, ptr %9, align 4, !tbaa !14
  store i32 %40, ptr %10, align 4, !tbaa !14
  br label %55

41:                                               ; preds = %27
  %42 = load double, ptr %7, align 8, !tbaa !32
  %43 = load ptr, ptr %5, align 8, !tbaa !34
  %44 = load i32, ptr %9, align 4, !tbaa !14
  %45 = add nsw i32 %44, 1
  %46 = sext i32 %45 to i64
  %47 = getelementptr inbounds double, ptr %43, i64 %46
  %48 = load double, ptr %47, align 8, !tbaa !32
  %49 = fcmp ogt double %42, %48
  br i1 %49, label %50, label %53

50:                                               ; preds = %41
  %51 = load i32, ptr %9, align 4, !tbaa !14
  %52 = add nsw i32 %51, 1
  store i32 %52, ptr %8, align 4, !tbaa !14
  br label %54

53:                                               ; preds = %41
  br label %56

54:                                               ; preds = %50
  br label %55

55:                                               ; preds = %54, %39
  br label %23, !llvm.loop !111

56:                                               ; preds = %53, %23
  %57 = load i32, ptr %9, align 4, !tbaa !14
  store i32 %57, ptr %4, align 4
  call void @llvm.lifetime.end.p0(i64 4, ptr %10) #12
  call void @llvm.lifetime.end.p0(i64 4, ptr %9) #12
  call void @llvm.lifetime.end.p0(i64 4, ptr %8) #12
  br label %58

58:                                               ; preds = %56, %18
  %59 = load i32, ptr %4, align 4
  ret i32 %59
}

; Function Attrs: mustprogress uwtable
define noundef double @_ZNK6icu_775units14UnitsConverter11baseToScaleEdPdi(ptr noundef nonnull align 8 dereferenceable(520) %0, double noundef %1, ptr noundef %2, i32 noundef %3) #1 align 2 {
  %5 = alloca ptr, align 8
  %6 = alloca double, align 8
  %7 = alloca ptr, align 8
  %8 = alloca i32, align 4
  %9 = alloca i32, align 4
  store ptr %0, ptr %5, align 8, !tbaa !92
  store double %1, ptr %6, align 8, !tbaa !32
  store ptr %2, ptr %7, align 8, !tbaa !34
  store i32 %3, ptr %8, align 4, !tbaa !14
  %10 = load double, ptr %6, align 8, !tbaa !32
  %11 = fcmp olt double %10, 0.000000e+00
  br i1 %11, label %12, label %15

12:                                               ; preds = %4
  %13 = load double, ptr %6, align 8, !tbaa !32
  %14 = fneg double %13
  store double %14, ptr %6, align 8, !tbaa !32
  br label %15

15:                                               ; preds = %12, %4
  call void @llvm.lifetime.start.p0(i64 4, ptr %9) #12
  %16 = load ptr, ptr %7, align 8, !tbaa !34
  %17 = load i32, ptr %8, align 4, !tbaa !14
  %18 = load double, ptr %6, align 8, !tbaa !32
  %19 = call noundef i32 @_ZN6icu_775unitsL13bsearchRangesEPdid(ptr noundef %16, i32 noundef %17, double noundef %18)
  store i32 %19, ptr %9, align 4, !tbaa !14
  %20 = load i32, ptr %9, align 4, !tbaa !14
  %21 = sitofp i32 %20 to double
  call void @llvm.lifetime.end.p0(i64 4, ptr %9) #12
  ret double %21
}