; Function Attrs: mustprogress nofree norecurse nosync nounwind willreturn memory(argmem: read) uwtable
define noundef double @_ZNK6icu_775units14UnitsConverter11baseToScaleEdPdi(ptr noundef nonnull readnone align 8 captures(none) dereferenceable(520) %0, double noundef %1, ptr noundef readonly captures(none) %2, i32 noundef %3) local_unnamed_addr #15 align 2 {
  %5 = fcmp olt double %1, 0.000000e+00
  %6 = fneg double %1
  %.0 = select i1 %5, double %6, double %1
  %7 = sext i32 %3 to i64
  %8 = getelementptr inbounds double, ptr %2, i64 %7
  %9 = load double, ptr %8, align 8, !tbaa !20
  %10 = fcmp ult double %.0, %9
  br i1 %10, label %11, label %_ZN6icu_775unitsL13bsearchRangesEPdid.exit

11:                                               ; preds = %4
  %12 = icmp sgt i32 %3, -1
  br i1 %12, label %.lr.ph.preheader.i, label %_ZN6icu_775unitsL13bsearchRangesEPdid.exit

.lr.ph.preheader.i:                               ; preds = %11
  %13 = add nuw nsw i32 %3, 1
  br label %.lr.ph.i

.lr.ph.i:                                         ; preds = %26, %.lr.ph.preheader.i
  %.025.i = phi i32 [ %.1.i, %26 ], [ %13, %.lr.ph.preheader.i ]
  %.02024.i = phi i32 [ %.121.i, %26 ], [ 0, %.lr.ph.preheader.i ]
  %14 = add nuw nsw i32 %.02024.i, %.025.i
  %15 = lshr i32 %14, 1
  %16 = zext nneg i32 %15 to i64
  %17 = getelementptr inbounds nuw double, ptr %2, i64 %16
  %18 = load double, ptr %17, align 8, !tbaa !20
  %19 = fcmp olt double %.0, %18
  br i1 %19, label %26, label %20

20:                                               ; preds = %.lr.ph.i
  %21 = add nuw nsw i32 %15, 1
  %22 = zext nneg i32 %21 to i64
  %23 = getelementptr inbounds nuw double, ptr %2, i64 %22
  %24 = load double, ptr %23, align 8, !tbaa !20
  %25 = fcmp ogt double %.0, %24
  br i1 %25, label %26, label %_ZN6icu_775unitsL13bsearchRangesEPdid.exit

26:                                               ; preds = %20, %.lr.ph.i
  %.121.i = phi i32 [ %.02024.i, %.lr.ph.i ], [ %21, %20 ]
  %.1.i = phi i32 [ %15, %.lr.ph.i ], [ %.025.i, %20 ]
  %27 = icmp slt i32 %.121.i, %.1.i
  br i1 %27, label %.lr.ph.i, label %_ZN6icu_775unitsL13bsearchRangesEPdid.exit, !llvm.loop !105

_ZN6icu_775unitsL13bsearchRangesEPdid.exit:       ; preds = %20, %26, %4, %11
  %.022.i = phi i32 [ %3, %4 ], [ 0, %11 ], [ %15, %26 ], [ %15, %20 ]
  %28 = sitofp i32 %.022.i to double
  ret double %28
}